target datalayout = "e-m:e-p270:32:32-p271:32:32-p272:64:64-i64:64-i128:128-f80:128-n8:16:32:64-S128"
target triple = "x86_64-pc-linux-gnu"

; Function Attrs: nounwind uwtable
define internal i32 @ParseISO8601Number(ptr noundef %0, ptr noundef %1, ptr noundef %2, ptr noundef %3) #0 {
  %5 = alloca i32, align 4
  %6 = alloca ptr, align 8
  %7 = alloca ptr, align 8
  %8 = alloca ptr, align 8
  %9 = alloca ptr, align 8
  %10 = alloca double, align 8
  %11 = alloca i32, align 4
  store ptr %0, ptr %6, align 8
  store ptr %1, ptr %7, align 8
  store ptr %2, ptr %8, align 8
  store ptr %3, ptr %9, align 8
  call void @llvm.lifetime.start.p0(i64 8, ptr %10) #8
  %12 = call ptr @__ctype_b_loc() #10
  %13 = load ptr, ptr %12, align 8
  %14 = load ptr, ptr %6, align 8
  %15 = load i8, ptr %14, align 1
  %16 = zext i8 %15 to i32
  %17 = sext i32 %16 to i64
  %18 = getelementptr inbounds i16, ptr %13, i64 %17
  %19 = load i16, ptr %18, align 2
  %20 = zext i16 %19 to i32
  %21 = and i32 %20, 2048
  %22 = icmp ne i32 %21, 0
  br i1 %22, label %34, label %23

23:                                               ; preds = %4
  %24 = load ptr, ptr %6, align 8
  %25 = load i8, ptr %24, align 1
  %26 = sext i8 %25 to i32
  %27 = icmp eq i32 %26, 45
  br i1 %27, label %34, label %28

28:                                               ; preds = %23
  %29 = load ptr, ptr %6, align 8
  %30 = load i8, ptr %29, align 1
  %31 = sext i8 %30 to i32
  %32 = icmp eq i32 %31, 46
  br i1 %32, label %34, label %33

33:                                               ; preds = %28
  store i32 -1, ptr %5, align 4
  store i32 1, ptr %11, align 4
  br label %77

34:                                               ; preds = %28, %23, %4
  %35 = call ptr @__errno_location() #10
  store i32 0, ptr %35, align 4
  %36 = load ptr, ptr %6, align 8
  %37 = load ptr, ptr %7, align 8
  %38 = call double @strtod(ptr noundef %36, ptr noundef %37) #8
  store double %38, ptr %10, align 8
  %39 = load ptr, ptr %7, align 8
  %40 = load ptr, ptr %39, align 8
  %41 = load ptr, ptr %6, align 8
  %42 = icmp eq ptr %40, %41
  br i1 %42, label %47, label %43

43:                                               ; preds = %34
  %44 = call ptr @__errno_location() #10
  %45 = load i32, ptr %44, align 4
  %46 = icmp ne i32 %45, 0
  br i1 %46, label %47, label %48

47:                                               ; preds = %43, %34
  store i32 -1, ptr %5, align 4
  store i32 1, ptr %11, align 4
  br label %77

48:                                               ; preds = %43
  %49 = load double, ptr %10, align 8
  %50 = fcmp olt double %49, 0xC1E0000000000000
  br i1 %50, label %54, label %51

51:                                               ; preds = %48
  %52 = load double, ptr %10, align 8
  %53 = fcmp ogt double %52, 0x41DFFFFFFFC00000
  br i1 %53, label %54, label %55

54:                                               ; preds = %51, %48
  store i32 -2, ptr %5, align 4
  store i32 1, ptr %11, align 4
  br label %77

55:                                               ; preds = %51
  %56 = load double, ptr %10, align 8
  %57 = fcmp oge double %56, 0.000000e+00
  br i1 %57, label %58, label %63

58:                                               ; preds = %55
  %59 = load double, ptr %10, align 8
  %60 = call double @llvm.floor.f64(double %59)
  %61 = fptosi double %60 to i32
  %62 = load ptr, ptr %8, align 8
  store i32 %61, ptr %62, align 4
  br label %70

63:                                               ; preds = %55
  %64 = load double, ptr %10, align 8
  %65 = fneg double %64
  %66 = call double @llvm.floor.f64(double %65)
  %67 = fneg double %66
  %68 = fptosi double %67 to i32
  %69 = load ptr, ptr %8, align 8
  store i32 %68, ptr %69, align 4
  br label %70

70:                                               ; preds = %63, %58
  %71 = load double, ptr %10, align 8
  %72 = load ptr, ptr %8, align 8
  %73 = load i32, ptr %72, align 4
  %74 = sitofp i32 %73 to double
  %75 = fsub double %71, %74
  %76 = load ptr, ptr %9, align 8
  store double %75, ptr %76, align 8
  store i32 0, ptr %5, align 4
  store i32 1, ptr %11, align 4
  br label %77

77:                                               ; preds = %70, %54, %47, %33
  call void @llvm.lifetime.end.p0(i64 8, ptr %10) #8
  %78 = load i32, ptr %5, align 4
  ret i32 %78
}