; Function Attrs: mustprogress nofree nounwind willreturn uwtable
define internal fastcc range(i32 -2, 1) i32 @ParseISO8601Number(ptr noundef %0, ptr noundef nonnull captures(none) %1, ptr noundef nonnull writeonly captures(none) %2, ptr noundef nonnull writeonly captures(none) %3) unnamed_addr #10 {
  %5 = tail call ptr @__ctype_b_loc() #15
  %6 = load ptr, ptr %5, align 8
  %7 = load i8, ptr %0, align 1
  %8 = zext i8 %7 to i64
  %9 = getelementptr inbounds nuw i16, ptr %6, i64 %8
  %10 = load i16, ptr %9, align 2
  %.fr24 = freeze i16 %10
  %11 = and i16 %.fr24, 2048
  %.not = icmp ne i16 %11, 0
  %.off = add i8 %7, -45
  %switch = icmp ult i8 %.off, 2
  %or.cond23 = or i1 %switch, %.not
  br i1 %or.cond23, label %12, label %33

12:                                               ; preds = %4
  %13 = tail call ptr @__errno_location() #15
  store i32 0, ptr %13, align 4
  %14 = tail call double @strtod(ptr noundef nonnull %0, ptr noundef nonnull %1) #13
  %15 = load ptr, ptr %1, align 8
  %16 = icmp eq ptr %15, %0
  br i1 %16, label %33, label %17

17:                                               ; preds = %12
  %18 = load i32, ptr %13, align 4
  %.not20 = icmp eq i32 %18, 0
  br i1 %.not20, label %19, label %33

19:                                               ; preds = %17
  %20 = fcmp olt double %14, 0xC1E0000000000000
  %21 = fcmp ogt double %14, 0x41DFFFFFFFC00000
  %or.cond = or i1 %20, %21
  br i1 %or.cond, label %33, label %22

22:                                               ; preds = %19
  %23 = fcmp ult double %14, 0.000000e+00
  br i1 %23, label %26, label %24

24:                                               ; preds = %22
  %25 = tail call double @llvm.floor.f64(double %14)
  br label %30

26:                                               ; preds = %22
  %27 = fneg double %14
  %28 = tail call double @llvm.floor.f64(double %27)
  %29 = fneg double %28
  br label %30

30:                                               ; preds = %26, %24
  %storemerge.in = phi double [ %29, %26 ], [ %25, %24 ]
  %storemerge = fptosi double %storemerge.in to i32
  store i32 %storemerge, ptr %2, align 4
  %31 = sitofp i32 %storemerge to double
  %32 = fsub double %14, %31
  store double %32, ptr %3, align 8
  br label %33

33:                                               ; preds = %4, %19, %12, %17, %30
  %.0 = phi i32 [ 0, %30 ], [ -1, %17 ], [ -1, %12 ], [ -2, %19 ], [ -1, %4 ]
  ret i32 %.0
}